Certificate:
    Data:
        Version: 1 (0x0)
        Serial Number: 4 (0x4)
    Signature Algorithm: sha256WithRSAEncryption
        Issuer: CN=getperf_inter_192.168.0.65
        Validity
            Not Before: Apr 26 05:10:26 2023 GMT
            Not After : Sep 11 05:10:26 2050 GMT
        Subject: CN=alma8
        Subject Public Key Info:
            Public Key Algorithm: rsaEncryption
                Public-Key: (2048 bit)
                Modulus:
                    00:bc:71:9d:0f:de:23:29:ac:33:38:fc:6f:a0:85:
                    f1:1c:e1:ff:db:ea:c3:38:8b:f0:ec:29:7a:57:75:
                    1a:9d:d1:d4:ae:b9:ef:9a:d0:9a:1c:8a:5c:9e:d9:
                    53:55:97:97:9e:13:89:b2:99:4f:96:f7:59:cc:25:
                    8b:f0:5e:75:09:cb:61:47:fc:1b:a1:61:95:29:9d:
                    6d:4d:41:48:23:43:00:51:bf:3e:53:22:a4:e4:01:
                    88:01:76:a9:c9:d2:9f:90:41:8d:c0:07:dc:de:5b:
                    d1:0e:61:fb:40:22:a3:69:e2:3f:94:9d:57:42:ff:
                    72:16:27:13:36:25:27:bb:a6:c8:f9:6f:9c:2b:bc:
                    f4:5d:e0:4d:43:ad:74:d2:5e:d6:a7:89:ea:80:10:
                    88:54:c2:9d:be:b9:66:8a:0f:9f:68:90:2c:e3:c2:
                    6b:c3:64:f0:fa:9f:8e:23:d2:88:b3:c1:73:43:42:
                    6c:46:50:e6:89:40:10:d9:b1:78:6b:b0:f3:62:21:
                    ea:72:c7:32:31:e7:5d:5d:2d:58:70:8f:53:48:c1:
                    97:90:a1:a4:08:f9:82:f0:62:fe:36:3c:88:1b:7b:
                    ff:61:cb:e4:af:a2:d5:f7:6c:0d:1c:90:62:81:a7:
                    6f:42:77:ff:d4:5a:55:0d:54:b8:db:80:f2:4f:37:
                    d0:27
                Exponent: 65537 (0x10001)
    Signature Algorithm: sha256WithRSAEncryption
         5f:07:c5:4a:60:52:19:86:76:9a:9f:05:ea:b3:28:20:2c:98:
         b4:dc:9b:04:18:85:b2:fb:5f:ea:49:0d:ef:c8:eb:df:93:8e:
         f1:3c:7e:b5:2f:f8:71:8a:8f:cc:31:05:82:e5:ec:da:00:1c:
         61:30:51:5c:c9:f1:b5:d6:87:30:01:5c:ec:1c:4c:f1:73:1f:
         58:ad:a5:ae:2e:81:3e:1f:a6:07:5d:3a:3b:bb:13:c6:97:b6:
         c2:d3:20:67:75:70:36:57:d0:82:b4:ee:c7:42:a6:38:dc:cb:
         36:84:51:f0:81:0c:2a:1f:d7:ba:fe:36:2b:e1:b3:86:75:a4:
         83:a4:0d:0c:9f:03:19:4e:cb:34:87:a2:eb:5d:f0:f9:14:05:
         3f:93:d9:1a:63:02:a1:bd:e1:9c:15:f3:e9:fa:7a:4d:06:75:
         fe:27:2b:f0:30:32:4f:c7:5e:18:ed:98:3b:23:ed:22:9f:e1:
         14:2e:2c:f5:64:40:49:a3:0b:7f:84:ee:c8:a0:d9:ab:b0:47:
         fe:f6:7b:74:5c:bf:8f:fc:4d:27:cf:7a:c0:77:ac:eb:97:e6:
         30:0d:ce:92:f5:97:e5:09:56:39:1d:10:69:6b:dd:f8:4e:bf:
         02:fa:fa:fa:bc:98:4a:78:53:7b:5e:47:77:51:60:ee:6f:ed:
         fb:d8:47:84
-----BEGIN CERTIFICATE-----
MIICqzCCAZMCAQQwDQYJKoZIhvcNAQELBQAwJTEjMCEGA1UEAwwaZ2V0cGVyZl9p
bnRlcl8xOTIuMTY4LjAuNjUwIBcNMjMwNDI2MDUxMDI2WhgPMjA1MDA5MTEwNTEw
MjZaMBAxDjAMBgNVBAMMBWFsbWE4MIIBIjANBgkqhkiG9w0BAQEFAAOCAQ8AMIIB
CgKCAQEAvHGdD94jKawzOPxvoIXxHOH/2+rDOIvw7Cl6V3UandHUrrnvmtCaHIpc
ntlTVZeXnhOJsplPlvdZzCWL8F51CcthR/wboWGVKZ1tTUFII0MAUb8+UyKk5AGI
AXapydKfkEGNwAfc3lvRDmH7QCKjaeI/lJ1XQv9yFicTNiUnu6bI+W+cK7z0XeBN
Q6100l7Wp4nqgBCIVMKdvrlmig+faJAs48Jrw2Tw+p+OI9KIs8FzQ0JsRlDmiUAQ
2bF4a7DzYiHqcscyMeddXS1YcI9TSMGXkKGkCPmC8GL+NjyIG3v/Ycvkr6LV92wN
HJBigadvQnf/1FpVDVS424DyTzfQJwIDAQABMA0GCSqGSIb3DQEBCwUAA4IBAQBf
B8VKYFIZhnaanwXqsyggLJi03JsEGIWy+1/qSQ3vyOvfk47xPH61L/hxio/MMQWC
5ezaABxhMFFcyfG11ocwAVzsHEzxcx9YraWuLoE+H6YHXTo7uxPGl7bC0yBndXA2
V9CCtO7HQqY43Ms2hFHwgQwqH9e6/jYr4bOGdaSDpA0MnwMZTss0h6LrXfD5FAU/
k9kaYwKhveGcFfPp+npNBnX+JyvwMDJPx14Y7Zg7I+0in+EULiz1ZEBJowt/hO7I
oNmrsEf+9nt0XL+P/E0nz3rAd6zrl+YwDc6S9ZflCVY5HRBpa934Tr8C+vr6vJhK
eFN7Xkd3UWDub+372EeE
-----END CERTIFICATE-----
