Certificate:
    Data:
        Version: 1 (0x0)
        Serial Number: 6 (0x6)
    Signature Algorithm: sha256WithRSAEncryption
        Issuer: CN=getperf_inter_192.168.0.15
        Validity
            Not Before: May 29 00:29:24 2020 GMT
            Not After : Oct 15 00:29:24 2047 GMT
        Subject: CN=centos80
        Subject Public Key Info:
            Public Key Algorithm: rsaEncryption
                Public-Key: (2048 bit)
                Modulus:
                    00:a0:d3:df:db:53:2b:d4:6d:37:19:76:46:e5:d9:
                    44:4a:f8:bd:08:26:1a:42:f3:08:13:3d:84:1c:5e:
                    42:fd:b6:59:f4:11:dc:85:0d:60:27:8f:52:6d:8b:
                    44:3c:41:cf:a1:ce:9a:b6:2c:5c:32:b8:d0:e7:0b:
                    7d:f4:db:5c:da:52:ba:61:dc:9b:85:27:30:e9:d6:
                    60:30:53:63:65:bf:a4:05:fd:4f:d6:4f:a8:6a:f2:
                    f3:b8:b5:76:cd:26:e3:b9:24:e5:84:e0:57:f4:bd:
                    b0:54:67:dd:5a:7c:34:d6:ad:04:2b:e2:82:7f:e2:
                    20:47:ac:2d:ec:df:e8:6b:54:6a:da:59:d5:aa:86:
                    af:78:6f:9a:65:83:fe:59:2e:e8:e9:63:0d:3f:7f:
                    6d:bd:2d:66:35:44:49:c3:03:f1:11:1c:c5:28:1d:
                    b4:59:7f:ce:ad:29:5f:58:b2:eb:dd:e9:57:79:28:
                    3f:fa:ce:22:67:b1:de:ce:1b:2b:1e:88:b9:3e:7a:
                    7f:5d:b4:07:2e:56:7d:3d:79:07:8e:75:15:04:5c:
                    f5:88:44:91:bf:60:b4:b8:66:ff:fc:85:67:90:36:
                    31:28:93:f3:36:63:a8:b7:c8:65:fd:1e:f6:6f:52:
                    c6:c4:3f:4a:c1:76:a9:7e:09:43:08:c1:74:59:d0:
                    4c:51
                Exponent: 65537 (0x10001)
    Signature Algorithm: sha256WithRSAEncryption
         cd:2f:03:6e:4c:99:2b:0b:3a:d4:43:41:cc:02:d9:61:01:47:
         fc:47:a3:5e:7c:3a:b9:1f:40:af:b4:bd:f6:79:72:2c:f7:17:
         94:08:34:e5:11:05:2d:68:2d:4d:83:1a:65:d9:98:42:bd:a4:
         f2:0f:b3:8e:b5:ad:8d:c1:ab:bb:e8:76:08:58:57:dc:ff:f7:
         b5:7a:ce:56:14:77:d4:50:22:ba:96:05:ce:e8:9a:ed:1a:18:
         39:ca:14:f8:fc:c0:29:84:a4:8f:13:71:ea:60:8d:e9:ab:bf:
         aa:4f:ec:31:33:a0:5a:6c:b3:db:70:60:f4:d4:51:64:4e:6d:
         09:f8:e2:f7:c5:b1:b5:3e:fe:6d:1a:dd:a0:69:e8:ae:34:49:
         ff:7e:42:de:2c:fb:54:a8:e8:e3:d0:80:a7:45:07:c7:db:d7:
         f6:c6:a1:f7:78:c5:fd:f6:e7:6e:6e:99:aa:b9:ef:5c:5a:24:
         d2:53:f2:1e:14:f8:2f:ce:ea:27:76:b6:d5:14:f5:e9:13:d2:
         cc:44:ef:f3:39:a7:76:eb:55:03:14:26:0a:36:87:3b:0d:c5:
         6a:30:e9:1c:2e:ad:2d:17:a5:46:e7:2c:f0:cb:24:55:4d:64:
         8a:f5:41:1e:35:a0:ee:68:f9:c4:b8:27:ca:dd:da:cd:2e:d4:
         49:18:a4:72
-----BEGIN CERTIFICATE-----
MIICrDCCAZQCAQYwDQYJKoZIhvcNAQELBQAwJTEjMCEGA1UEAwwaZ2V0cGVyZl9p
bnRlcl8xOTIuMTY4LjAuMTUwHhcNMjAwNTI5MDAyOTI0WhcNNDcxMDE1MDAyOTI0
WjATMREwDwYDVQQDDAhjZW50b3M4MDCCASIwDQYJKoZIhvcNAQEBBQADggEPADCC
AQoCggEBAKDT39tTK9RtNxl2RuXZREr4vQgmGkLzCBM9hBxeQv22WfQR3IUNYCeP
Um2LRDxBz6HOmrYsXDK40OcLffTbXNpSumHcm4UnMOnWYDBTY2W/pAX9T9ZPqGry
87i1ds0m47kk5YTgV/S9sFRn3Vp8NNatBCvign/iIEesLezf6GtUatpZ1aqGr3hv
mmWD/lku6OljDT9/bb0tZjVEScMD8REcxSgdtFl/zq0pX1iy693pV3koP/rOImex
3s4bKx6IuT56f120By5WfT15B451FQRc9YhEkb9gtLhm//yFZ5A2MSiT8zZjqLfI
Zf0e9m9SxsQ/SsF2qX4JQwjBdFnQTFECAwEAATANBgkqhkiG9w0BAQsFAAOCAQEA
zS8DbkyZKws61ENBzALZYQFH/EejXnw6uR9Ar7S99nlyLPcXlAg05REFLWgtTYMa
ZdmYQr2k8g+zjrWtjcGru+h2CFhX3P/3tXrOVhR31FAiupYFzuia7RoYOcoU+PzA
KYSkjxNx6mCN6au/qk/sMTOgWmyz23Bg9NRRZE5tCfji98WxtT7+bRrdoGnorjRJ
/35C3iz7VKjo49CAp0UHx9vX9sah93jF/fbnbm6ZqrnvXFok0lPyHhT4L87qJ3a2
1RT16RPSzETv8zmndutVAxQmCjaHOw3FajDpHC6tLRelRucs8MskVU1kivVBHjWg
7mj5xLgnyt3azS7USRikcg==
-----END CERTIFICATE-----
