Certificate:
    Data:
        Version: 3 (0x2)
        Serial Number: 1 (0x1)
        Signature Algorithm: sha256WithRSAEncryption
        Issuer: CN=getperf_inter_192.168.0.65
        Validity
            Not Before: Aug 16 04:28:23 2023 GMT
            Not After : Jan  1 04:28:23 2051 GMT
        Subject: CN=alma8
        Subject Public Key Info:
            Public Key Algorithm: rsaEncryption
                RSA Public-Key: (2048 bit)
                Modulus:
                    00:9d:fa:54:4e:96:6b:04:56:57:ba:c6:a3:3f:81:
                    e1:1f:32:67:ca:d0:53:5d:f6:0c:d2:a0:9a:9f:0f:
                    21:2e:9b:91:95:12:e6:7e:4e:6f:d1:c8:d9:d3:42:
                    29:12:bc:a9:9b:36:bf:c3:98:86:6e:ad:45:41:85:
                    86:5d:96:ae:eb:5c:d8:92:81:7c:fb:ec:6d:66:72:
                    e1:05:2e:0b:9b:2a:f1:cd:cb:80:68:04:11:c5:35:
                    a0:94:1a:df:69:bb:80:83:a4:50:4e:77:53:8d:91:
                    9f:0d:47:15:58:f4:8f:e3:72:39:36:f5:e6:a5:b9:
                    cf:1c:e1:65:15:a8:36:80:bb:58:76:83:42:64:84:
                    5a:63:c5:c4:87:e6:c3:11:47:81:fb:8d:8b:1a:9c:
                    0f:2b:ad:3a:0a:a7:45:f3:7a:98:38:18:88:ef:75:
                    bd:f6:de:ef:42:dd:53:cd:40:07:e2:4e:cf:1d:9b:
                    c7:f4:40:57:47:c7:a0:8d:28:28:57:70:9b:c1:b4:
                    e6:c5:d7:b0:3a:87:46:59:cd:1c:38:c3:92:8a:b1:
                    6f:e7:39:b5:ab:a2:4d:17:0e:da:aa:a0:0e:05:8e:
                    cc:e6:6d:3a:19:d2:74:8e:42:b8:a9:27:a8:6b:05:
                    d5:94:db:27:cb:6c:48:6f:0c:83:a5:de:74:b9:df:
                    19:fd
                Exponent: 65537 (0x10001)
        X509v3 extensions:
            X509v3 Subject Alternative Name: 
                DNS:alma8
    Signature Algorithm: sha256WithRSAEncryption
         65:ce:98:25:01:3d:e5:05:49:2e:bd:a5:a0:b8:19:50:ca:fa:
         af:31:44:ba:3d:17:0f:91:60:d9:05:b5:dc:e4:15:13:93:c3:
         c5:c2:5d:29:12:a6:22:6c:4d:3a:38:59:2b:be:83:6f:48:d0:
         f7:f8:f6:3e:27:06:29:5a:36:fe:10:24:bd:1c:56:75:37:0e:
         f3:96:f0:40:81:74:df:80:f6:e6:fe:7b:2c:e9:62:71:4b:c7:
         c2:bf:3b:ae:53:f1:1f:6d:c0:d4:0e:80:2b:c6:09:0c:93:ed:
         32:c6:c4:f4:e2:9e:cc:fc:3f:30:73:24:59:01:d0:ab:ff:a6:
         75:8e:57:5f:8b:cb:00:cd:c3:f0:82:77:a8:95:6b:d4:cd:46:
         78:56:19:3b:d3:f1:a3:ba:01:2e:b3:0c:16:fe:77:ca:80:d3:
         8e:ba:89:2f:79:61:df:a3:e3:45:34:5a:f9:20:22:7a:57:74:
         dc:ac:f2:e6:f7:0d:e4:cf:9f:a7:c8:38:16:5b:f2:f8:cc:77:
         5d:e6:cc:f4:32:57:c0:33:f4:c8:b7:15:63:a2:11:5d:3e:cf:
         bf:ba:21:e6:d8:da:42:88:8d:02:90:d5:6f:a2:9b:b0:f5:7a:
         ea:79:d3:44:1c:71:b6:7f:77:af:10:cf:27:bb:f8:48:5d:76:
         2e:a7:83:e3
-----BEGIN CERTIFICATE-----
MIICxjCCAa6gAwIBAgIBATANBgkqhkiG9w0BAQsFADAlMSMwIQYDVQQDDBpnZXRw
ZXJmX2ludGVyXzE5Mi4xNjguMC42NTAgFw0yMzA4MTYwNDI4MjNaGA8yMDUxMDEw
MTA0MjgyM1owEDEOMAwGA1UEAwwFYWxtYTgwggEiMA0GCSqGSIb3DQEBAQUAA4IB
DwAwggEKAoIBAQCd+lROlmsEVle6xqM/geEfMmfK0FNd9gzSoJqfDyEum5GVEuZ+
Tm/RyNnTQikSvKmbNr/DmIZurUVBhYZdlq7rXNiSgXz77G1mcuEFLgubKvHNy4Bo
BBHFNaCUGt9pu4CDpFBOd1ONkZ8NRxVY9I/jcjk29ealuc8c4WUVqDaAu1h2g0Jk
hFpjxcSH5sMRR4H7jYsanA8rrToKp0Xzepg4GIjvdb323u9C3VPNQAfiTs8dm8f0
QFdHx6CNKChXcJvBtObF17A6h0ZZzRw4w5KKsW/nObWrok0XDtqqoA4FjszmbToZ
0nSOQripJ6hrBdWU2yfLbEhvDIOl3nS53xn9AgMBAAGjFDASMBAGA1UdEQQJMAeC
BWFsbWE4MA0GCSqGSIb3DQEBCwUAA4IBAQBlzpglAT3lBUkuvaWguBlQyvqvMUS6
PRcPkWDZBbXc5BUTk8PFwl0pEqYibE06OFkrvoNvSND3+PY+JwYpWjb+ECS9HFZ1
Nw7zlvBAgXTfgPbm/nss6WJxS8fCvzuuU/EfbcDUDoArxgkMk+0yxsT04p7M/D8w
cyRZAdCr/6Z1jldfi8sAzcPwgneolWvUzUZ4Vhk70/GjugEuswwW/nfKgNOOuokv
eWHfo+NFNFr5ICJ6V3TcrPLm9w3kz5+nyDgWW/L4zHdd5sz0MlfAM/TItxVjohFd
Ps+/uiHm2NpCiI0CkNVvopuw9XrqedNEHHG2f3evEM8nu/hIXXYup4Pj
-----END CERTIFICATE-----
