Certificate:
    Data:
        Version: 1 (0x0)
        Serial Number: 6 (0x6)
        Signature Algorithm: sha256WithRSAEncryption
        Issuer: CN=getperf_ca_192.168.0.65
        Validity
            Not Before: Aug 16 04:28:22 2023 GMT
            Not After : Jan  1 04:28:22 2051 GMT
        Subject: CN=site1__alma8
        Subject Public Key Info:
            Public Key Algorithm: rsaEncryption
                RSA Public-Key: (2048 bit)
                Modulus:
                    00:e2:60:0a:03:8c:f1:ae:21:14:68:de:ab:ee:18:
                    be:97:fb:a1:3c:dc:c7:59:fe:50:9c:9d:be:65:79:
                    99:c1:9e:b5:68:94:4a:f4:81:a8:e5:a7:3a:eb:40:
                    e0:e9:99:1f:77:d2:bd:4c:f3:50:8e:85:88:e2:ef:
                    09:ad:4e:bf:73:b5:b4:7a:9f:30:1a:17:61:3a:62:
                    f6:86:cf:48:95:cf:9c:33:89:b3:a8:b3:e0:91:78:
                    7a:d0:2a:aa:a7:b6:2b:77:c1:ca:5d:56:dc:87:1c:
                    6f:8c:08:e1:44:df:a1:25:c9:07:d5:4b:02:b2:cc:
                    e2:6c:69:f5:e2:23:87:a8:b3:7f:1c:6d:2d:bb:1d:
                    5e:15:45:8e:5f:d6:7b:b9:12:8d:7c:65:34:3d:e1:
                    fb:f8:fd:ac:39:b6:cf:98:a3:78:4f:b4:58:88:ff:
                    d4:1e:40:df:f0:47:d2:9a:38:af:63:67:2d:e6:28:
                    a8:79:50:70:0a:82:7b:27:9b:b6:5e:e3:4e:36:85:
                    7e:b0:be:76:0d:40:5a:ac:4e:d9:42:d7:23:a6:42:
                    94:e8:31:36:ba:c0:47:ba:3b:81:ee:c1:09:11:ee:
                    5e:59:5e:c9:a1:ec:9a:24:15:a9:de:6a:ca:0e:37:
                    0a:2b:0d:a8:8c:4b:c7:13:11:fe:57:21:a7:89:5e:
                    7d:f9
                Exponent: 65537 (0x10001)
    Signature Algorithm: sha256WithRSAEncryption
         97:75:4e:09:c4:82:1e:1d:50:b3:19:f1:7d:1f:5b:8c:6b:57:
         f3:db:13:f7:86:18:65:b9:72:af:1a:75:db:db:b4:e1:72:ae:
         d2:1c:96:de:6b:62:7c:31:04:94:67:24:47:ae:39:64:35:8e:
         aa:57:52:52:72:26:77:9a:92:76:2d:4c:3c:d7:7b:ed:b0:73:
         28:b9:2e:fe:75:63:00:a3:5f:d9:92:c8:eb:e0:b4:ea:f1:95:
         4e:41:22:eb:c6:c6:f5:31:49:94:c7:4e:7d:d3:ff:18:a5:89:
         31:a8:1a:64:74:e6:78:f3:86:e7:c5:9a:1e:e3:e5:df:49:45:
         da:d0:af:88:d0:6f:96:ed:c4:d4:67:78:e7:d5:7f:0b:fe:f4:
         a6:09:30:0e:7a:dd:65:4b:54:0a:47:79:07:fb:50:a9:8d:14:
         eb:e8:1b:03:04:42:e4:4c:e0:5a:89:20:c1:b1:c7:e7:fc:dd:
         b9:4f:39:63:cf:0e:79:7c:3f:76:12:a1:e1:3e:9a:13:09:c0:
         d1:47:31:ba:09:cd:a3:b2:de:29:33:c6:01:7c:51:de:6c:d8:
         b2:aa:2c:c9:00:62:e1:b6:f7:57:0a:27:5a:37:f0:0f:45:d2:
         c3:86:c1:c7:ca:8c:03:42:c3:9a:a4:a7:8d:5e:40:91:53:94:
         a9:22:e8:ac
-----BEGIN CERTIFICATE-----
MIICrzCCAZcCAQYwDQYJKoZIhvcNAQELBQAwIjEgMB4GA1UEAwwXZ2V0cGVyZl9j
YV8xOTIuMTY4LjAuNjUwIBcNMjMwODE2MDQyODIyWhgPMjA1MTAxMDEwNDI4MjJa
MBcxFTATBgNVBAMMDHNpdGUxX19hbG1hODCCASIwDQYJKoZIhvcNAQEBBQADggEP
ADCCAQoCggEBAOJgCgOM8a4hFGjeq+4Yvpf7oTzcx1n+UJydvmV5mcGetWiUSvSB
qOWnOutA4OmZH3fSvUzzUI6FiOLvCa1Ov3O1tHqfMBoXYTpi9obPSJXPnDOJs6iz
4JF4etAqqqe2K3fByl1W3Iccb4wI4UTfoSXJB9VLArLM4mxp9eIjh6izfxxtLbsd
XhVFjl/We7kSjXxlND3h+/j9rDm2z5ijeE+0WIj/1B5A3/BH0po4r2NnLeYoqHlQ
cAqCeyebtl7jTjaFfrC+dg1AWqxO2ULXI6ZClOgxNrrAR7o7ge7BCRHuXlleyaHs
miQVqd5qyg43CisNqIxLxxMR/lchp4leffkCAwEAATANBgkqhkiG9w0BAQsFAAOC
AQEAl3VOCcSCHh1QsxnxfR9bjGtX89sT94YYZblyrxp129u04XKu0hyW3mtifDEE
lGckR645ZDWOqldSUnImd5qSdi1MPNd77bBzKLku/nVjAKNf2ZLI6+C06vGVTkEi
68bG9TFJlMdOfdP/GKWJMagaZHTmePOG58WaHuPl30lF2tCviNBvlu3E1Gd459V/
C/70pgkwDnrdZUtUCkd5B/tQqY0U6+gbAwRC5EzgWokgwbHH5/zduU85Y88OeXw/
dhKh4T6aEwnA0UcxugnNo7LeKTPGAXxR3mzYsqosyQBi4bb3VwonWjfwD0XSw4bB
x8qMA0LDmqSnjV5AkVOUqSLorA==
-----END CERTIFICATE-----
-----BEGIN RSA PRIVATE KEY-----
MIIEpgIBAAKCAQEA4mAKA4zxriEUaN6r7hi+l/uhPNzHWf5QnJ2+ZXmZwZ61aJRK
9IGo5ac660Dg6Zkfd9K9TPNQjoWI4u8JrU6/c7W0ep8wGhdhOmL2hs9Ilc+cM4mz
qLPgkXh60Cqqp7Yrd8HKXVbchxxvjAjhRN+hJckH1UsCsszibGn14iOHqLN/HG0t
ux1eFUWOX9Z7uRKNfGU0PeH7+P2sObbPmKN4T7RYiP/UHkDf8EfSmjivY2ct5iio
eVBwCoJ7J5u2XuNONoV+sL52DUBarE7ZQtcjpkKU6DE2usBHujuB7sEJEe5eWV7J
oeyaJBWp3mrKDjcKKw2ojEvHExH+VyGniV59+QIDAQABAoIBAQDXHVZGu3ep9atU
YEzXC9KJ0EcO8+nIPd/ShB+6hAw1LqDKiSiVImUiHoDhrxxLPwPlNHBIoGprlL9Y
jrgOZWePCBtB7uWh1ZfCCOqlfnJGUivn2bHM3WnIMsnZ6MGUb4rs2U141yLmjYH+
ey296hhTNK5p5EbjK8j6JtLOGt890dIfpQxSntEf5nmpPFJwtC1xEDCxnX8wATJQ
ilYwrdMX1Ob+9LVAgUd1OcBacXWChDqlAFvzHvKXaVDMRbmAJCCgE9GHPnO23zGC
hX9yJVpk/ipoEXhLuAidDcAQedrWfvi3ondoJdKngjmmHgcJ/QH2yrWwTsXN9ja2
+eTi0TXFAoGBAP0PkUSfGtNKOxMMT0fIaKPzr/eFCKfjlGQG0UQdkwMc1hPQ2wcx
R8okL+h4NQ5jyDlHKbfNdMtpvUfOUvh8ThD8F+h0DcuxfHOcutJE97ZqYYd42Wzb
F68QALze2C6SvUVixfFY3YZ1vXFtuUkYKkCd67GLDklD3RbT3iLmRPzfAoGBAOUB
IGDDmesj3ao535/qNRpZ7ydD4yl3XvieDQQ+a2hBcMkf3YVK1XIhA8tqy1d7w54w
cps0WEmz47BD8YsIV0nMPWUgbemalbe5PN1n0VuW6WEJZh3qXITUpFXXz8gAYwAI
oCyMI9HzOkDIkHc29QpJcqFv59p8SDez7nkcqwgnAoGBAKu0yGi7XERJddPy4khe
n0G/s4JLbhgcvy8vwQZq2rmd81P2vucedQufijI+fiGJau4Sbygb7EepM5lpUbrw
/TdhFgfP1xyDDWKU0d6ilUHc5Ng7E6xc7LEINrfwrNbNEkfmQVEFbyow8Z3pSXNj
RigZ/za0l7j2pyk6ENu1StIZAoGBAN0oAFfSrsOqCHlLmM48Bfqj3dUit6+lC3+4
S0PM8Ddn838YmfsO8SFeBucdBLFA4gLUMOn4XEcZRgtFInCtpnarmqMd9WfDlVEv
wDrl9wansEy5IfhEDANvxCDu4Uf6L6Gpst4ynKk2ZwyHZRTsayr7EYwcoWGb4raA
uw4VhIrDAoGBANTJpKKNBD5cXAncLOUzpEW+4sRWSI5DRID3NFQgFWwuWAwPkLSk
juntW8mZ2zEcHQX0nT5pb2IWp1CxGIN+MzuBA9DwDX3pwAuz53TvawFooC9b03+8
WT8rKZ836fAGjNq3cvgXLchxgSwWAVF7iH2fyop9Zp7IN0UvfaRGmEfp
-----END RSA PRIVATE KEY-----
