Certificate:
    Data:
        Version: 1 (0x0)
        Serial Number: 31 (0x1f)
    Signature Algorithm: sha256WithRSAEncryption
        Issuer: CN=getperf_ca_192.168.10.1
        Validity
            Not Before: Jun  6 04:51:00 2020 GMT
            Not After : Jun  6 04:51:00 2021 GMT
        Subject: CN=site1__centos80
        Subject Public Key Info:
            Public Key Algorithm: rsaEncryption
                Public-Key: (2048 bit)
                Modulus:
                    00:c3:aa:8c:57:a9:e5:ab:f4:82:b9:f0:37:be:32:
                    e2:f0:40:d3:6a:06:d0:6d:8f:c8:8e:ee:75:ef:da:
                    2e:ac:e0:63:cc:4c:dc:4e:4b:84:2e:ac:b8:65:af:
                    c6:8d:e0:3e:ef:a7:68:59:43:90:e7:99:0e:df:58:
                    bc:0f:13:99:99:0b:82:fa:e0:fe:4f:95:db:2d:7b:
                    fe:0f:15:4e:f0:d3:bb:e3:16:5b:1b:f6:b4:c4:d3:
                    a6:4d:f5:30:d9:e4:b7:d7:26:4e:4e:81:bd:a4:31:
                    66:a4:47:cd:4a:54:3a:44:b9:12:64:d5:3a:89:ba:
                    d1:1b:58:94:d9:bc:07:99:0c:ba:22:d2:cb:8a:38:
                    3b:08:0b:1e:0d:a9:aa:68:45:02:25:8e:13:ca:59:
                    0a:b3:d3:9a:d0:47:53:17:9b:63:b1:8e:77:5b:08:
                    20:9b:8c:a4:01:08:78:1a:cc:8c:e0:74:78:03:5e:
                    6e:87:e7:bc:d8:be:89:90:91:32:91:bb:c1:bf:29:
                    6b:3f:e5:f6:23:2f:82:b5:28:66:59:03:cd:c2:95:
                    48:6c:ac:9c:2d:05:81:3c:62:c0:f1:84:51:e2:3e:
                    2c:8b:a5:3a:d6:a8:4f:3a:aa:33:76:1f:be:6f:70:
                    c7:32:ba:d7:9a:85:43:83:b3:60:8a:aa:56:02:cf:
                    72:87
                Exponent: 65537 (0x10001)
    Signature Algorithm: sha256WithRSAEncryption
         86:69:2a:68:c1:67:3a:53:bc:c4:6d:fb:c7:d8:2b:fc:28:11:
         e2:25:56:a2:2a:49:13:e2:f4:27:c7:2f:cf:6b:e2:bc:54:70:
         2d:58:95:e6:94:ed:86:3c:a8:41:e0:04:17:ff:0a:63:8f:52:
         9e:b5:b2:8d:4c:d1:cc:02:43:c9:af:c3:8a:0c:43:9c:80:58:
         8e:44:df:99:1c:c3:0c:8e:4b:6a:b6:be:9e:fc:93:da:27:e8:
         94:af:12:af:59:35:52:8a:08:55:11:2d:68:41:1f:c0:c1:b5:
         08:1b:95:df:b1:e8:71:f0:cf:fd:94:84:70:46:af:65:25:cb:
         88:2b:c1:30:f8:b2:d4:f6:84:51:92:44:b7:17:95:18:2b:8c:
         0a:87:5b:4c:be:18:85:c7:59:7a:0f:dc:fb:c9:ac:ad:69:da:
         b8:8d:88:54:18:19:7f:9d:41:77:f9:50:01:8a:66:d2:a7:fd:
         5a:3a:c1:f7:ab:a8:b3:e3:17:55:4f:9c:35:a6:84:b9:a6:df:
         60:58:6a:e8:6f:13:80:38:67:d7:95:00:13:b6:ba:26:41:e7:
         6a:c5:50:e9:74:b6:c7:27:43:f6:16:d8:5d:98:c7:e9:d0:ac:
         c3:cf:14:91:3e:6f:d7:8a:7f:c3:07:cd:9a:67:c2:42:58:4e:
         4d:7e:0f:41
-----BEGIN CERTIFICATE-----
MIICsDCCAZgCAR8wDQYJKoZIhvcNAQELBQAwIjEgMB4GA1UEAwwXZ2V0cGVyZl9j
YV8xOTIuMTY4LjEwLjEwHhcNMjAwNjA2MDQ1MTAwWhcNMjEwNjA2MDQ1MTAwWjAa
MRgwFgYDVQQDFA9zaXRlMV9fY2VudG9zODAwggEiMA0GCSqGSIb3DQEBAQUAA4IB
DwAwggEKAoIBAQDDqoxXqeWr9IK58De+MuLwQNNqBtBtj8iO7nXv2i6s4GPMTNxO
S4QurLhlr8aN4D7vp2hZQ5DnmQ7fWLwPE5mZC4L64P5Pldste/4PFU7w07vjFlsb
9rTE06ZN9TDZ5LfXJk5Ogb2kMWakR81KVDpEuRJk1TqJutEbWJTZvAeZDLoi0suK
ODsICx4NqapoRQIljhPKWQqz05rQR1MXm2OxjndbCCCbjKQBCHgazIzgdHgDXm6H
57zYvomQkTKRu8G/KWs/5fYjL4K1KGZZA83ClUhsrJwtBYE8YsDxhFHiPiyLpTrW
qE86qjN2H75vcMcyuteahUODs2CKqlYCz3KHAgMBAAEwDQYJKoZIhvcNAQELBQAD
ggEBAIZpKmjBZzpTvMRt+8fYK/woEeIlVqIqSRPi9CfHL89r4rxUcC1YleaU7YY8
qEHgBBf/CmOPUp61so1M0cwCQ8mvw4oMQ5yAWI5E35kcwwyOS2q2vp78k9on6JSv
Eq9ZNVKKCFURLWhBH8DBtQgbld+x6HHwz/2UhHBGr2Uly4grwTD4stT2hFGSRLcX
lRgrjAqHW0y+GIXHWXoP3PvJrK1p2riNiFQYGX+dQXf5UAGKZtKn/Vo6wferqLPj
F1VPnDWmhLmm32BYauhvE4A4Z9eVABO2uiZB52rFUOl0tscnQ/YW2F2Yx+nQrMPP
FJE+b9eKf8MHzZpnwkJYTk1+D0E=
-----END CERTIFICATE-----
